target datalayout = "e-m:e-p270:32:32-p271:32:32-p272:64:64-i64:64-i128:128-f80:128-n8:16:32:64-S128"
target triple = "x86_64-pc-linux-gnu"

%struct.Vec_Int_t_ = type { i32, i32, ptr }
%struct.Vta_Man_t_ = type { ptr, ptr, i32, i32, i32, ptr, ptr, ptr, i32, i32, ptr, i32, i32, i32, ptr, ptr, i32, i32, ptr, ptr, ptr, i64, i64, i64, i64 }
%struct.Vta_Obj_t_ = type { i32, i32, i32, i32 }

; Function Attrs: inlinehint nounwind uwtable
define internal i32 @Vga_ManHash(i32 noundef %0, i32 noundef %1, i32 noundef %2) #2 {
  %4 = alloca i32, align 4
  %5 = alloca i32, align 4
  %6 = alloca i32, align 4
  store i32 %0, ptr %4, align 4, !tbaa !8
  store i32 %1, ptr %5, align 4, !tbaa !8
  store i32 %2, ptr %6, align 4, !tbaa !8
  %7 = load i32, ptr %4, align 4, !tbaa !8
  %8 = load i32, ptr %5, align 4, !tbaa !8
  %9 = add nsw i32 %7, %8
  %10 = load i32, ptr %4, align 4, !tbaa !8
  %11 = load i32, ptr %5, align 4, !tbaa !8
  %12 = add nsw i32 %10, %11
  %13 = add nsw i32 %12, 1
  %14 = mul nsw i32 %9, %13
  %15 = load i32, ptr %6, align 4, !tbaa !8
  %16 = urem i32 %14, %15
  ret i32 %16
}

; Function Attrs: inlinehint nounwind uwtable
define internal ptr @Vga_ManLookup(ptr noundef %0, i32 noundef %1, i32 noundef %2) #2 {
  %4 = alloca ptr, align 8
  %5 = alloca i32, align 4
  %6 = alloca i32, align 4
  %7 = alloca ptr, align 8
  %8 = alloca ptr, align 8
  store ptr %0, ptr %4, align 8, !tbaa !37
  store i32 %1, ptr %5, align 4, !tbaa !8
  store i32 %2, ptr %6, align 4, !tbaa !8
  call void @llvm.lifetime.start.p0(i64 8, ptr %7) #13
  call void @llvm.lifetime.start.p0(i64 8, ptr %8) #13
  %9 = load ptr, ptr %4, align 8, !tbaa !37
  %10 = getelementptr inbounds nuw %struct.Vta_Man_t_, ptr %9, i32 0, i32 5
  %11 = load ptr, ptr %10, align 8, !tbaa !132
  %12 = load i32, ptr %5, align 4, !tbaa !8
  %13 = load i32, ptr %6, align 4, !tbaa !8
  %14 = load ptr, ptr %4, align 8, !tbaa !37
  %15 = getelementptr inbounds nuw %struct.Vta_Man_t_, ptr %14, i32 0, i32 4
  %16 = load i32, ptr %15, align 8, !tbaa !131
  %17 = call i32 @Vga_ManHash(i32 noundef %12, i32 noundef %13, i32 noundef %16)
  %18 = sext i32 %17 to i64
  %19 = getelementptr inbounds i32, ptr %11, i64 %18
  store ptr %19, ptr %8, align 8, !tbaa !34
  %20 = load ptr, ptr %4, align 8, !tbaa !37
  %21 = load ptr, ptr %8, align 8, !tbaa !34
  %22 = load i32, ptr %21, align 4, !tbaa !8
  %23 = call ptr @Vta_ManObj(ptr noundef %20, i32 noundef %22)
  store ptr %23, ptr %7, align 8, !tbaa !57
  br label %24

24:                                               ; preds = %41, %3
  %25 = load ptr, ptr %7, align 8, !tbaa !57
  %26 = icmp ne ptr %25, null
  br i1 %26, label %27, label %48

27:                                               ; preds = %24
  %28 = load ptr, ptr %7, align 8, !tbaa !57
  %29 = getelementptr inbounds nuw %struct.Vta_Obj_t_, ptr %28, i32 0, i32 0
  %30 = load i32, ptr %29, align 4, !tbaa !58
  %31 = load i32, ptr %5, align 4, !tbaa !8
  %32 = icmp eq i32 %30, %31
  br i1 %32, label %33, label %40

33:                                               ; preds = %27
  %34 = load ptr, ptr %7, align 8, !tbaa !57
  %35 = getelementptr inbounds nuw %struct.Vta_Obj_t_, ptr %34, i32 0, i32 1
  %36 = load i32, ptr %35, align 4, !tbaa !64
  %37 = load i32, ptr %6, align 4, !tbaa !8
  %38 = icmp eq i32 %36, %37
  br i1 %38, label %39, label %40

39:                                               ; preds = %33
  br label %48

40:                                               ; preds = %33, %27
  br label %41

41:                                               ; preds = %40
  %42 = load ptr, ptr %7, align 8, !tbaa !57
  %43 = getelementptr inbounds nuw %struct.Vta_Obj_t_, ptr %42, i32 0, i32 2
  store ptr %43, ptr %8, align 8, !tbaa !34
  %44 = load ptr, ptr %4, align 8, !tbaa !37
  %45 = load ptr, ptr %8, align 8, !tbaa !34
  %46 = load i32, ptr %45, align 4, !tbaa !8
  %47 = call ptr @Vta_ManObj(ptr noundef %44, i32 noundef %46)
  store ptr %47, ptr %7, align 8, !tbaa !57
  br label %24, !llvm.loop !209

48:                                               ; preds = %39, %24
  %49 = load ptr, ptr %8, align 8, !tbaa !34
  call void @llvm.lifetime.end.p0(i64 8, ptr %8) #13
  call void @llvm.lifetime.end.p0(i64 8, ptr %7) #13
  ret ptr %49
}

; Function Attrs: inlinehint nounwind uwtable
define internal ptr @Vta_ManObj(ptr noundef %0, i32 noundef %1) #2 {
  %3 = alloca ptr, align 8
  %4 = alloca i32, align 4
  store ptr %0, ptr %3, align 8, !tbaa !37
  store i32 %1, ptr %4, align 4, !tbaa !8
  %5 = load i32, ptr %4, align 4, !tbaa !8
  %6 = icmp ne i32 %5, 0
  br i1 %6, label %7, label %14

7:                                                ; preds = %2
  %8 = load ptr, ptr %3, align 8, !tbaa !37
  %9 = getelementptr inbounds nuw %struct.Vta_Man_t_, ptr %8, i32 0, i32 6
  %10 = load ptr, ptr %9, align 8, !tbaa !79
  %11 = load i32, ptr %4, align 4, !tbaa !8
  %12 = sext i32 %11 to i64
  %13 = getelementptr inbounds %struct.Vta_Obj_t_, ptr %10, i64 %12
  br label %15

14:                                               ; preds = %2
  br label %15

15:                                               ; preds = %14, %7
  %16 = phi ptr [ %13, %7 ], [ null, %14 ]
  ret ptr %16
}

; Function Attrs: inlinehint nounwind uwtable
define internal i32 @Vec_IntEntry(ptr noundef %0, i32 noundef %1) #2 {
  %3 = alloca ptr, align 8
  %4 = alloca i32, align 4
  store ptr %0, ptr %3, align 8, !tbaa !3
  store i32 %1, ptr %4, align 4, !tbaa !8
  %5 = load ptr, ptr %3, align 8, !tbaa !3
  %6 = getelementptr inbounds nuw %struct.Vec_Int_t_, ptr %5, i32 0, i32 2
  %7 = load ptr, ptr %6, align 8, !tbaa !15
  %8 = load i32, ptr %4, align 4, !tbaa !8
  %9 = sext i32 %8 to i64
  %10 = getelementptr inbounds i32, ptr %7, i64 %9
  %11 = load i32, ptr %10, align 4, !tbaa !8
  ret i32 %11
}

; Function Attrs: inlinehint nounwind uwtable
define internal i32 @Vec_IntSize(ptr noundef %0) #2 {
  %2 = alloca ptr, align 8
  store ptr %0, ptr %2, align 8, !tbaa !3
  %3 = load ptr, ptr %2, align 8, !tbaa !3
  %4 = getelementptr inbounds nuw %struct.Vec_Int_t_, ptr %3, i32 0, i32 1
  %5 = load i32, ptr %4, align 4, !tbaa !22
  ret i32 %5
}

; Function Attrs: inlinehint nounwind uwtable
define internal void @Vga_ManDelete(ptr noundef %0, i32 noundef %1, i32 noundef %2) #2 {
  %4 = alloca ptr, align 8
  %5 = alloca i32, align 4
  %6 = alloca i32, align 4
  %7 = alloca ptr, align 8
  %8 = alloca ptr, align 8
  store ptr %0, ptr %4, align 8, !tbaa !37
  store i32 %1, ptr %5, align 4, !tbaa !8
  store i32 %2, ptr %6, align 4, !tbaa !8
  call void @llvm.lifetime.start.p0(i64 8, ptr %7) #13
  %9 = load ptr, ptr %4, align 8, !tbaa !37
  %10 = load i32, ptr %5, align 4, !tbaa !8
  %11 = load i32, ptr %6, align 4, !tbaa !8
  %12 = call ptr @Vga_ManLookup(ptr noundef %9, i32 noundef %10, i32 noundef %11)
  store ptr %12, ptr %7, align 8, !tbaa !34
  call void @llvm.lifetime.start.p0(i64 8, ptr %8) #13
  %13 = load ptr, ptr %4, align 8, !tbaa !37
  %14 = load ptr, ptr %7, align 8, !tbaa !34
  %15 = load i32, ptr %14, align 4, !tbaa !8
  %16 = call ptr @Vta_ManObj(ptr noundef %13, i32 noundef %15)
  store ptr %16, ptr %8, align 8, !tbaa !57
  %17 = load ptr, ptr %8, align 8, !tbaa !57
  %18 = getelementptr inbounds nuw %struct.Vta_Obj_t_, ptr %17, i32 0, i32 2
  %19 = load i32, ptr %18, align 4, !tbaa !174
  %20 = load ptr, ptr %7, align 8, !tbaa !34
  store i32 %19, ptr %20, align 4, !tbaa !8
  %21 = load ptr, ptr %8, align 8, !tbaa !57
  %22 = getelementptr inbounds nuw %struct.Vta_Obj_t_, ptr %21, i32 0, i32 2
  store i32 -1, ptr %22, align 4, !tbaa !174
  call void @llvm.lifetime.end.p0(i64 8, ptr %8) #13
  call void @llvm.lifetime.end.p0(i64 8, ptr %7) #13
  ret void
}

; Function Attrs: nounwind uwtable
define void @Vga_ManRollBack(ptr noundef %0, i32 noundef %1) #0 {
  %3 = alloca ptr, align 8
  %4 = alloca i32, align 4
  %5 = alloca ptr, align 8
  %6 = alloca ptr, align 8
  %7 = alloca i32, align 4
  %8 = alloca i32, align 4
  store ptr %0, ptr %3, align 8, !tbaa !37
  store i32 %1, ptr %4, align 4, !tbaa !8
  call void @llvm.lifetime.start.p0(i64 8, ptr %5) #13
  %9 = load ptr, ptr %3, align 8, !tbaa !37
  %10 = getelementptr inbounds nuw %struct.Vta_Man_t_, ptr %9, i32 0, i32 6
  %11 = load ptr, ptr %10, align 8, !tbaa !79
  %12 = load i32, ptr %4, align 4, !tbaa !8
  %13 = sext i32 %12 to i64
  %14 = getelementptr inbounds %struct.Vta_Obj_t_, ptr %11, i64 %13
  store ptr %14, ptr %5, align 8, !tbaa !57
  call void @llvm.lifetime.start.p0(i64 8, ptr %6) #13
  %15 = load ptr, ptr %3, align 8, !tbaa !37
  %16 = getelementptr inbounds nuw %struct.Vta_Man_t_, ptr %15, i32 0, i32 6
  %17 = load ptr, ptr %16, align 8, !tbaa !79
  %18 = load ptr, ptr %3, align 8, !tbaa !37
  %19 = getelementptr inbounds nuw %struct.Vta_Man_t_, ptr %18, i32 0, i32 2
  %20 = load i32, ptr %19, align 8, !tbaa !56
  %21 = sext i32 %20 to i64
  %22 = getelementptr inbounds %struct.Vta_Obj_t_, ptr %17, i64 %21
  store ptr %22, ptr %6, align 8, !tbaa !57
  call void @llvm.lifetime.start.p0(i64 4, ptr %7) #13
  call void @llvm.lifetime.start.p0(i64 4, ptr %8) #13
  br label %23

23:                                               ; preds = %35, %2
  %24 = load ptr, ptr %5, align 8, !tbaa !57
  %25 = load ptr, ptr %6, align 8, !tbaa !57
  %26 = icmp ult ptr %24, %25
  br i1 %26, label %27, label %38

27:                                               ; preds = %23
  %28 = load ptr, ptr %3, align 8, !tbaa !37
  %29 = load ptr, ptr %5, align 8, !tbaa !57
  %30 = getelementptr inbounds nuw %struct.Vta_Obj_t_, ptr %29, i32 0, i32 0
  %31 = load i32, ptr %30, align 4, !tbaa !58
  %32 = load ptr, ptr %5, align 8, !tbaa !57
  %33 = getelementptr inbounds nuw %struct.Vta_Obj_t_, ptr %32, i32 0, i32 1
  %34 = load i32, ptr %33, align 4, !tbaa !64
  call void @Vga_ManDelete(ptr noundef %28, i32 noundef %31, i32 noundef %34)
  br label %35

35:                                               ; preds = %27
  %36 = load ptr, ptr %5, align 8, !tbaa !57
  %37 = getelementptr inbounds nuw %struct.Vta_Obj_t_, ptr %36, i32 1
  store ptr %37, ptr %5, align 8, !tbaa !57
  br label %23, !llvm.loop !178

38:                                               ; preds = %23
  %39 = load ptr, ptr %3, align 8, !tbaa !37
  %40 = getelementptr inbounds nuw %struct.Vta_Man_t_, ptr %39, i32 0, i32 6
  %41 = load ptr, ptr %40, align 8, !tbaa !79
  %42 = load i32, ptr %4, align 4, !tbaa !8
  %43 = sext i32 %42 to i64
  %44 = getelementptr inbounds %struct.Vta_Obj_t_, ptr %41, i64 %43
  %45 = load ptr, ptr %3, align 8, !tbaa !37
  %46 = getelementptr inbounds nuw %struct.Vta_Man_t_, ptr %45, i32 0, i32 2
  %47 = load i32, ptr %46, align 8, !tbaa !56
  %48 = load i32, ptr %4, align 4, !tbaa !8
  %49 = sub nsw i32 %47, %48
  %50 = sext i32 %49 to i64
  %51 = mul i64 16, %50
  call void @llvm.memset.p0.i64(ptr align 4 %44, i8 0, i64 %51, i1 false)
  %52 = load i32, ptr %4, align 4, !tbaa !8
  %53 = load ptr, ptr %3, align 8, !tbaa !37
  %54 = getelementptr inbounds nuw %struct.Vta_Man_t_, ptr %53, i32 0, i32 2
  store i32 %52, ptr %54, align 8, !tbaa !56
  store i32 0, ptr %7, align 4, !tbaa !8
  br label %55

55:                                               ; preds = %86, %38
  %56 = load i32, ptr %7, align 4, !tbaa !8
  %57 = load ptr, ptr %3, align 8, !tbaa !37
  %58 = getelementptr inbounds nuw %struct.Vta_Man_t_, ptr %57, i32 0, i32 20
  %59 = load ptr, ptr %58, align 8, !tbaa !127
  %60 = call i32 @Vec_IntSize(ptr noundef %59)
  %61 = icmp slt i32 %56, %60
  br i1 %61, label %62, label %68

62:                                               ; preds = %55
  %63 = load ptr, ptr %3, align 8, !tbaa !37
  %64 = getelementptr inbounds nuw %struct.Vta_Man_t_, ptr %63, i32 0, i32 20
  %65 = load ptr, ptr %64, align 8, !tbaa !127
  %66 = load i32, ptr %7, align 4, !tbaa !8
  %67 = call i32 @Vec_IntEntry(ptr noundef %65, i32 noundef %66)
  store i32 %67, ptr %8, align 4, !tbaa !8
  br label %68

68:                                               ; preds = %62, %55
  %69 = phi i1 [ false, %55 ], [ true, %62 ]
  br i1 %69, label %70, label %89

70:                                               ; preds = %68
  %71 = load i32, ptr %8, align 4, !tbaa !8
  %72 = load ptr, ptr %3, align 8, !tbaa !37
  %73 = getelementptr inbounds nuw %struct.Vta_Man_t_, ptr %72, i32 0, i32 2
  %74 = load i32, ptr %73, align 8, !tbaa !56
  %75 = icmp slt i32 %71, %74
  br i1 %75, label %76, label %85

76:                                               ; preds = %70
  %77 = load ptr, ptr %3, align 8, !tbaa !37
  %78 = load i32, ptr %8, align 4, !tbaa !8
  %79 = call ptr @Vta_ManObj(ptr noundef %77, i32 noundef %78)
  store ptr %79, ptr %5, align 8, !tbaa !57
  %80 = load ptr, ptr %5, align 8, !tbaa !57
  %81 = getelementptr inbounds nuw %struct.Vta_Obj_t_, ptr %80, i32 0, i32 3
  %82 = load i32, ptr %81, align 4
  %83 = and i32 %82, -1073741825
  %84 = or i32 %83, 0
  store i32 %84, ptr %81, align 4
  br label %85

85:                                               ; preds = %76, %70
  br label %86

86:                                               ; preds = %85
  %87 = load i32, ptr %7, align 4, !tbaa !8
  %88 = add nsw i32 %87, 1
  store i32 %88, ptr %7, align 4, !tbaa !8
  br label %55, !llvm.loop !179

89:                                               ; preds = %68
  call void @llvm.lifetime.end.p0(i64 4, ptr %8) #13
  call void @llvm.lifetime.end.p0(i64 4, ptr %7) #13
  call void @llvm.lifetime.end.p0(i64 8, ptr %6) #13
  call void @llvm.lifetime.end.p0(i64 8, ptr %5) #13
  ret void
}