; Function Attrs: nofree norecurse nosync nounwind memory(readwrite, inaccessiblemem: write) uwtable
define void @Vga_ManRollBack(ptr noundef captures(none) %0, i32 noundef %1) local_unnamed_addr #5 {
  %3 = getelementptr inbounds nuw i8, ptr %0, i64 40
  %4 = load ptr, ptr %3, align 8, !tbaa !62
  %5 = sext i32 %1 to i64
  %6 = getelementptr inbounds %struct.Vta_Obj_t_, ptr %4, i64 %5
  %7 = getelementptr inbounds nuw i8, ptr %0, i64 16
  %8 = load i32, ptr %7, align 8, !tbaa !61
  %9 = sext i32 %8 to i64
  %10 = getelementptr inbounds %struct.Vta_Obj_t_, ptr %4, i64 %9
  %11 = icmp slt i32 %1, %8
  br i1 %11, label %.lr.ph, label %._crit_edge

.lr.ph:                                           ; preds = %2
  %12 = getelementptr inbounds nuw i8, ptr %0, i64 32
  %13 = load ptr, ptr %12, align 8, !tbaa !89
  %14 = getelementptr inbounds nuw i8, ptr %0, i64 24
  br label %15

15:                                               ; preds = %.lr.ph, %Vga_ManDelete.exit
  %.028 = phi ptr [ %6, %.lr.ph ], [ %36, %Vga_ManDelete.exit ]
  %16 = load i32, ptr %.028, align 4, !tbaa !64
  %17 = getelementptr inbounds nuw i8, ptr %.028, i64 4
  %18 = load i32, ptr %17, align 4, !tbaa !80
  %19 = load i32, ptr %14, align 8, !tbaa !90
  %20 = add nsw i32 %18, %16
  %21 = add nsw i32 %20, 1
  %22 = mul nsw i32 %21, %20
  %23 = urem i32 %22, %19
  %24 = sext i32 %23 to i64
  %25 = getelementptr inbounds i32, ptr %13, i64 %24
  br label %26

26:                                               ; preds = %Vta_ManObj.exit16.i.i, %15
  %.019.i.i = phi ptr [ %33, %Vta_ManObj.exit16.i.i ], [ %25, %15 ]
  %.sink = load i32, ptr %.019.i.i, align 4, !tbaa !10
  %.not.i15.i.i = icmp ne i32 %.sink, 0
  tail call void @llvm.assume(i1 %.not.i15.i.i)
  %.pn.i = sext i32 %.sink to i64
  %.01418.i.i = getelementptr inbounds %struct.Vta_Obj_t_, ptr %4, i64 %.pn.i
  %27 = load i32, ptr %.01418.i.i, align 4, !tbaa !64
  %28 = icmp eq i32 %27, %16
  br i1 %28, label %29, label %Vta_ManObj.exit16.i.i

29:                                               ; preds = %26
  %30 = getelementptr inbounds nuw i8, ptr %.01418.i.i, i64 4
  %31 = load i32, ptr %30, align 4, !tbaa !80
  %32 = icmp eq i32 %31, %18
  br i1 %32, label %Vga_ManDelete.exit, label %Vta_ManObj.exit16.i.i

Vta_ManObj.exit16.i.i:                            ; preds = %29, %26
  %33 = getelementptr inbounds nuw i8, ptr %.01418.i.i, i64 8
  br label %26

Vga_ManDelete.exit:                               ; preds = %29
  %34 = getelementptr inbounds %struct.Vta_Obj_t_, ptr %4, i64 %.pn.i, i32 2
  %35 = load i32, ptr %34, align 4, !tbaa !162
  store i32 %35, ptr %.019.i.i, align 4, !tbaa !10
  store i32 -1, ptr %34, align 4, !tbaa !162
  %36 = getelementptr inbounds nuw i8, ptr %.028, i64 16
  %37 = icmp ult ptr %36, %10
  br i1 %37, label %15, label %._crit_edge.loopexit, !llvm.loop !166

._crit_edge.loopexit:                             ; preds = %Vga_ManDelete.exit
  %.pre = load i32, ptr %7, align 8, !tbaa !61
  br label %._crit_edge

._crit_edge:                                      ; preds = %._crit_edge.loopexit, %2
  %38 = phi i32 [ %.pre, %._crit_edge.loopexit ], [ %8, %2 ]
  %39 = sub nsw i32 %38, %1
  %40 = sext i32 %39 to i64
  %41 = shl nsw i64 %40, 4
  tail call void @llvm.memset.p0.i64(ptr align 4 %6, i8 0, i64 %41, i1 false)
  store i32 %1, ptr %7, align 8, !tbaa !61
  %42 = getelementptr inbounds nuw i8, ptr %0, i64 128
  %43 = load ptr, ptr %42, align 8, !tbaa !116
  %44 = getelementptr i8, ptr %43, i64 4
  %.val2729 = load i32, ptr %44, align 4, !tbaa !15
  %45 = icmp sgt i32 %.val2729, 0
  br i1 %45, label %.lr.ph32, label %.critedge

.lr.ph32:                                         ; preds = %._crit_edge, %57
  %46 = phi ptr [ %58, %57 ], [ %43, %._crit_edge ]
  %indvars.iv = phi i64 [ %indvars.iv.next, %57 ], [ 0, %._crit_edge ]
  %47 = getelementptr i8, ptr %46, i64 8
  %.val = load ptr, ptr %47, align 8, !tbaa !3
  %48 = getelementptr inbounds nuw i32, ptr %.val, i64 %indvars.iv
  %49 = load i32, ptr %48, align 4, !tbaa !10
  %50 = load i32, ptr %7, align 8, !tbaa !61
  %51 = icmp slt i32 %49, %50
  br i1 %51, label %Vta_ManObj.exit, label %57

Vta_ManObj.exit:                                  ; preds = %.lr.ph32
  %.not.i = icmp ne i32 %49, 0
  tail call void @llvm.assume(i1 %.not.i)
  %52 = load ptr, ptr %3, align 8, !tbaa !62
  %53 = sext i32 %49 to i64
  %54 = getelementptr inbounds %struct.Vta_Obj_t_, ptr %52, i64 %53, i32 3
  %55 = load i32, ptr %54, align 4
  %56 = and i32 %55, -1073741825
  store i32 %56, ptr %54, align 4
  %.pre34 = load ptr, ptr %42, align 8, !tbaa !116
  br label %57

57:                                               ; preds = %.lr.ph32, %Vta_ManObj.exit
  %58 = phi ptr [ %46, %.lr.ph32 ], [ %.pre34, %Vta_ManObj.exit ]
  %indvars.iv.next = add nuw nsw i64 %indvars.iv, 1
  %59 = getelementptr i8, ptr %58, i64 4
  %.val27 = load i32, ptr %59, align 4, !tbaa !15
  %60 = sext i32 %.val27 to i64
  %61 = icmp slt i64 %indvars.iv.next, %60
  br i1 %61, label %.lr.ph32, label %.critedge, !llvm.loop !167

.critedge:                                        ; preds = %57, %._crit_edge
  ret void
}